; Function Attrs: mustprogress nounwind uwtable
define hidden void @_ZN14HandshakeStateC2EP10JavaThread(ptr noundef nonnull align 8 dereferenceable(131) %0, ptr noundef %1) unnamed_addr #0 align 2 {
  store ptr %1, ptr %0, align 8
  %3 = getelementptr inbounds i8, ptr %0, i64 8
  store ptr null, ptr %3, align 8
  %4 = getelementptr inbounds i8, ptr %0, i64 16
  tail call void @_ZN5MutexC2ENS_4RankEPKcb(ptr noundef nonnull align 8 dereferenceable(104) %4, i32 noundef 21, ptr noundef nonnull @.str.12, i1 noundef zeroext true) #11
  %5 = getelementptr inbounds i8, ptr %0, i64 120
  store volatile ptr null, ptr %5, align 8
  %6 = getelementptr inbounds i8, ptr %0, i64 128
  store i8 0, ptr %6, align 8
  %7 = getelementptr inbounds i8, ptr %0, i64 129
  store volatile i8 0, ptr %7, align 1
  %8 = getelementptr inbounds i8, ptr %0, i64 130
  store i8 0, ptr %8, align 2
  ret void
}